; Function Attrs: mustprogress nounwind uwtable
define void @_ZN7httplib6Client18set_socket_optionsESt8functionIFviEE(ptr nocapture noundef nonnull readonly align 8 dereferenceable(9) %this, ptr nocapture noundef %socket_options) local_unnamed_addr #4 align 2 personality ptr @__gxx_personality_v0 {
entry:
  %__tmp.sroa.0.i.i.i.i = alloca { i64, i64 }, align 8
  %ref.tmp.i.i = alloca %"class.std::function.17", align 8
  %0 = load ptr, ptr %this, align 8
  %_M_invoker2.i = getelementptr inbounds i8, ptr %socket_options, i64 24
  %1 = load ptr, ptr %_M_invoker2.i, align 8
  %_M_manager.i.i.i = getelementptr inbounds i8, ptr %socket_options, i64 16
  %2 = load ptr, ptr %_M_manager.i.i.i, align 8
  %tobool.not.i.i.not.i = icmp eq ptr %2, null
  br i1 %tobool.not.i.i.not.i, label %_ZNSt8functionIFviEEC2EOS1_.exit.thread, label %if.then.i.i.i

_ZNSt8functionIFviEEC2EOS1_.exit.thread:          ; preds = %entry
  call void @llvm.lifetime.start.p0(i64 32, ptr nonnull %ref.tmp.i.i)
  %_M_invoker.i.i.i4 = getelementptr inbounds i8, ptr %ref.tmp.i.i, i64 24
  call void @llvm.memset.p0.i64(ptr noundef nonnull align 8 dereferenceable(24) %ref.tmp.i.i, i8 0, i64 24, i1 false)
  br label %_ZNSt8functionIFviEEC2EOS1_.exit.i.i

if.then.i.i.i:                                    ; preds = %entry
  tail call void @llvm.memset.p0.i64(ptr noundef nonnull align 8 dereferenceable(16) %_M_manager.i.i.i, i8 0, i64 16, i1 false)
  call void @llvm.lifetime.start.p0(i64 32, ptr nonnull %ref.tmp.i.i)
  %_M_invoker.i.i.i = getelementptr inbounds i8, ptr %ref.tmp.i.i, i64 24
  call void @llvm.memcpy.p0.p0.i64(ptr noundef nonnull align 8 dereferenceable(16) %ref.tmp.i.i, ptr noundef nonnull align 8 dereferenceable(16) %socket_options, i64 16, i1 false)
  br label %_ZNSt8functionIFviEEC2EOS1_.exit.i.i

_ZNSt8functionIFviEEC2EOS1_.exit.i.i:             ; preds = %_ZNSt8functionIFviEEC2EOS1_.exit.thread, %if.then.i.i.i
  %_M_invoker.i.i.i7 = phi ptr [ %_M_invoker.i.i.i4, %_ZNSt8functionIFviEEC2EOS1_.exit.thread ], [ %_M_invoker.i.i.i, %if.then.i.i.i ]
  %socket_options_.i6 = getelementptr inbounds i8, ptr %0, i64 616
  call void @llvm.lifetime.start.p0(i64 16, ptr nonnull %__tmp.sroa.0.i.i.i.i)
  call void @llvm.memcpy.p0.p0.i64(ptr noundef nonnull align 8 dereferenceable(16) %__tmp.sroa.0.i.i.i.i, ptr noundef nonnull align 8 dereferenceable(16) %ref.tmp.i.i, i64 16, i1 false)
  call void @llvm.memcpy.p0.p0.i64(ptr noundef nonnull align 8 dereferenceable(16) %ref.tmp.i.i, ptr noundef nonnull align 8 dereferenceable(16) %socket_options_.i6, i64 16, i1 false)
  call void @llvm.memcpy.p0.p0.i64(ptr noundef nonnull align 8 dereferenceable(16) %socket_options_.i6, ptr noundef nonnull align 8 dereferenceable(16) %__tmp.sroa.0.i.i.i.i, i64 16, i1 false)
  call void @llvm.lifetime.end.p0(i64 16, ptr nonnull %__tmp.sroa.0.i.i.i.i)
  %_M_manager.i.i.i1 = getelementptr inbounds i8, ptr %ref.tmp.i.i, i64 16
  %_M_manager3.i.i.i = getelementptr inbounds i8, ptr %0, i64 632
  %3 = load ptr, ptr %_M_manager3.i.i.i, align 8
  store ptr %3, ptr %_M_manager.i.i.i1, align 8
  store ptr %2, ptr %_M_manager3.i.i.i, align 8
  %_M_invoker4.i.i.i = getelementptr inbounds i8, ptr %0, i64 640
  %4 = load ptr, ptr %_M_invoker4.i.i.i, align 8
  store ptr %4, ptr %_M_invoker.i.i.i7, align 8
  store ptr %1, ptr %_M_invoker4.i.i.i, align 8
  %tobool.not.i.i.i.i = icmp eq ptr %3, null
  br i1 %tobool.not.i.i.i.i, label %_ZNSt8functionIFviEED2Ev.exit, label %if.then.i.i.i.i

if.then.i.i.i.i:                                  ; preds = %_ZNSt8functionIFviEEC2EOS1_.exit.i.i
  %call.i.i.i.i = invoke noundef zeroext i1 %3(ptr noundef nonnull align 8 dereferenceable(16) %ref.tmp.i.i, ptr noundef nonnull align 8 dereferenceable(16) %ref.tmp.i.i, i32 noundef 3)
          to label %_ZNSt8functionIFviEED2Ev.exit unwind label %terminate.lpad.i.i.i.i

terminate.lpad.i.i.i.i:                           ; preds = %if.then.i.i.i.i
  %5 = landingpad { ptr, i32 }
          catch ptr null
  %6 = extractvalue { ptr, i32 } %5, 0
  call void @__clang_call_terminate(ptr %6) #40
  unreachable

_ZNSt8functionIFviEED2Ev.exit:                    ; preds = %if.then.i.i.i.i, %_ZNSt8functionIFviEEC2EOS1_.exit.i.i
  call void @llvm.lifetime.end.p0(i64 32, ptr nonnull %ref.tmp.i.i)
  ret void
}